; Function Attrs: mustprogress uwtable
define i32 @uset_applyPattern_75(ptr noundef %set, ptr noundef %pattern, i32 noundef %patternLength, i32 noundef %options, ptr noundef %status) local_unnamed_addr #0 personality ptr @__gxx_personality_v0 {
entry:
  %pat = alloca %"class.icu_75::UnicodeString", align 8
  %pos = alloca %"class.icu_75::ParsePosition", align 8
  %cmp = icmp eq ptr %status, null
  br i1 %cmp, label %return, label %lor.lhs.false

lor.lhs.false:                                    ; preds = %entry
  %0 = load i32, ptr %status, align 4
  %cmp.i = icmp slt i32 %0, 1
  br i1 %cmp.i, label %if.end, label %return

if.end:                                           ; preds = %lor.lhs.false
  %cmp1 = icmp eq ptr %set, null
  br i1 %cmp1, label %if.then2, label %if.end3

if.then2:                                         ; preds = %if.end
  store i32 1, ptr %status, align 4
  br label %return

if.end3:                                          ; preds = %if.end
  call void @_ZN6icu_7513UnicodeStringC1EPKDsi(ptr noundef nonnull align 8 dereferenceable(64) %pat, ptr noundef %pattern, i32 noundef %patternLength)
  store ptr getelementptr inbounds ({ [5 x ptr] }, ptr @_ZTVN6icu_7513ParsePositionE, i64 0, i32 0, i64 2), ptr %pos, align 8
  %index.i = getelementptr inbounds i8, ptr %pos, i64 8
  store i32 0, ptr %index.i, align 8
  %errorIndex.i = getelementptr inbounds i8, ptr %pos, i64 12
  store i32 -1, ptr %errorIndex.i, align 4
  %call6 = invoke noundef nonnull align 8 dereferenceable(200) ptr @_ZN6icu_7510UnicodeSet12applyPatternERKNS_13UnicodeStringERNS_13ParsePositionEjPKNS_11SymbolTableER10UErrorCode(ptr noundef nonnull align 8 dereferenceable(200) %set, ptr noundef nonnull align 8 dereferenceable(64) %pat, ptr noundef nonnull align 8 dereferenceable(16) %pos, i32 noundef %options, ptr noundef null, ptr noundef nonnull align 4 dereferenceable(4) %status)
          to label %invoke.cont5 unwind label %lpad4

invoke.cont5:                                     ; preds = %if.end3
  %1 = load i32, ptr %index.i, align 8
  call void @_ZN6icu_7513ParsePositionD1Ev(ptr noundef nonnull align 8 dereferenceable(16) %pos) #3
  call void @_ZN6icu_7513UnicodeStringD1Ev(ptr noundef nonnull align 8 dereferenceable(64) %pat) #3
  br label %return

lpad4:                                            ; preds = %if.end3
  %2 = landingpad { ptr, i32 }
          cleanup
  call void @_ZN6icu_7513ParsePositionD1Ev(ptr noundef nonnull align 8 dereferenceable(16) %pos) #3
  call void @_ZN6icu_7513UnicodeStringD1Ev(ptr noundef nonnull align 8 dereferenceable(64) %pat) #3
  resume { ptr, i32 } %2

return:                                           ; preds = %entry, %lor.lhs.false, %invoke.cont5, %if.then2
  %retval.0 = phi i32 [ 0, %if.then2 ], [ %1, %invoke.cont5 ], [ 0, %lor.lhs.false ], [ 0, %entry ]
  ret i32 %retval.0
}